     1                                  extern printb
     2                                  extern printf
     3                                  
     4                                  section .data
     5 00000000 4E756D62657220310A-         msgn1   db  "Number 1",10,0
     5 00000009 00                 
     6 0000000A 4E756D62657220320A-         msgn2   db  "Number 2",10,0
     6 00000013 00                 
     7 00000014 584F520A00                  msg1    db  "XOR",10,0
     8 00000019 4F520A00                    msg2    db  "OR",10,0
     9 0000001D 414E440A00                  msg3    db  "AND",10,0
    10 00000022 4E4F54206E756D6265-         msg4    db  "NOT number 1",10,0
    10 0000002B 7220310A00         
    11 00000030 53484C0A00                  msg5    db  "SHL",10,0
    12 00000035 5348520A00                  msg6    db  "SHR",10,0
    13 0000003A 53414C0A00                  msg7    db  "SAL",10,0
    14 0000003F 5341520A00                  msg8    db  "SAR",10,0
    15 00000044 524F4C20310A00              msg9    db  "ROL 1",10,0
    16 0000004B 524F4C20320A00              msg10   db  "ROL 2",10,0
    17 00000052 524F5220310A00              msg11   db  "ROR 1",10,0
    18 00000059 524F5220320A00              msg12   db  "ROR 2",10,0
    19 00000060 B8FFFFFFFFFFFFFF            num1    dq  -72
    20 00000068 2804000000000000            num2    dq  1064
    21                                  section .bss
    22                                  section .text
    23                                      global main
    24                                  main:
    25 00000000 55                          push    rbp
    26 00000001 4889E5                      mov     rbp, rsp
    27                                  
    28                                      ; num 1 print custom
    29 00000004 48BE-                       mov     rsi, msgn1
    29 00000006 [0000000000000000] 
    30 0000000E E8D2010000                  call    printmsg
    31 00000013 488B3C25[60000000]          mov     rdi, [num1]
    32 0000001B E8(00000000)                call    printb
    33                                  
    34                                      ; num 2 print custom
    35 00000020 48BE-                       mov     rsi, msgn2
    35 00000022 [0A00000000000000] 
    36 0000002A E8B6010000                  call    printmsg
    37 0000002F 488B3C25[68000000]          mov     rdi, [num2]
    38 00000037 E8(00000000)                call    printb
    39                                  
    40                                      ; xor
    41 0000003C 48BE-                       mov     rsi, msg1
    41 0000003E [1400000000000000] 
    42 00000046 E89A010000                  call    printmsg
    43                                  
    44 0000004B 488B0425[60000000]          mov     rax, [num1]
    45 00000053 48330425[68000000]          xor     rax, [num2]
    46 0000005B 4889C7                      mov     rdi, rax
    47 0000005E E8(00000000)                call    printb
    48                                  
    49                                      ; or
    50 00000063 48BE-                       mov     rsi, msg2
    50 00000065 [1900000000000000] 
    51 0000006D E873010000                  call    printmsg
    52                                  
    53 00000072 488B0425[60000000]          mov     rax, [num1]
    54 0000007A 480B0425[68000000]          or      rax, [num2]
    55 00000082 4889C7                      mov     rdi, rax
    56 00000085 E8(00000000)                call    printb
    57                                  
    58                                      ; and
    59 0000008A 48BE-                       mov     rsi, msg3
    59 0000008C [1D00000000000000] 
    60 00000094 E84C010000                  call    printmsg
    61                                  
    62 00000099 488B0425[60000000]          mov     rax, [num1]
    63 000000A1 48230425[68000000]          and     rax, [num2]
    64 000000A9 4889C7                      mov     rdi, rax
    65 000000AC E8(00000000)                call    printb
    66                                  
    67                                      ; not
    68 000000B1 48BE-                       mov     rsi, msg4
    68 000000B3 [2200000000000000] 
    69 000000BB E825010000                  call    printmsg
    70                                  
    71 000000C0 488B0425[60000000]          mov     rax, [num1]
    72 000000C8 48F7D0                      not     rax
    73 000000CB 4889C7                      mov     rdi, rax
    74 000000CE E8(00000000)                call    printb
    75                                  
    76                                      ; shl
    77 000000D3 48BE-                       mov     rsi, msg5
    77 000000D5 [3000000000000000] 
    78 000000DD E803010000                  call    printmsg
    79                                  
    80 000000E2 488B0425[60000000]          mov     rax, [num1]
    81 000000EA C0E002                      shl     al, 2
    82 000000ED 4889C7                      mov     rdi, rax
    83 000000F0 E8(00000000)                call    printb
    84                                  
    85                                      ; shr
    86 000000F5 48BE-                       mov     rsi, msg6
    86 000000F7 [3500000000000000] 
    87 000000FF E8E1000000                  call    printmsg
    88                                  
    89 00000104 488B0425[60000000]          mov     rax, [num1]
    90 0000010C C0E802                      shr     al, 2
    91 0000010F 4889C7                      mov     rdi, rax
    92 00000112 E8(00000000)                call    printb
    93                                  
    94                                      ; sal
    95 00000117 48BE-                       mov     rsi, msg7
    95 00000119 [3A00000000000000] 
    96 00000121 E8BF000000                  call    printmsg
    97                                  
    98 00000126 488B0425[60000000]          mov     rax, [num1]
    99 0000012E C0E002                      sal     al, 2
   100 00000131 4889C7                      mov     rdi, rax
   101 00000134 E8(00000000)                call    printb
   102                                  
   103                                      ; sar
   104 00000139 48BE-                       mov     rsi, msg8
   104 0000013B [3F00000000000000] 
   105 00000143 E89D000000                  call    printmsg
   106                                  
   107 00000148 488B0425[60000000]          mov     rax, [num1]
   108 00000150 C0F802                      sar     al, 2
   109 00000153 4889C7                      mov     rdi, rax
   110 00000156 E8(00000000)                call    printb
   111                                  
   112                                      ; rol 1
   113 0000015B 48BE-                       mov     rsi, msg9
   113 0000015D [4400000000000000] 
   114 00000165 E87B000000                  call    printmsg
   115                                  
   116 0000016A 488B0425[60000000]          mov     rax, [num1]
   117 00000172 C0C002                      rol     al, 2
   118 00000175 4889C7                      mov     rdi, rax
   119 00000178 E8(00000000)                call    printb
   120 0000017D 48BE-                       mov     rsi, msg10
   120 0000017F [4B00000000000000] 
   121 00000187 E859000000                  call    printmsg
   122 0000018C 488B0425[68000000]          mov     rax, [num2]
   123 00000194 C0C002                      rol     al, 2
   124 00000197 4889C7                      mov     rdi, rax
   125 0000019A E8(00000000)                call    printb
   126                                  
   127                                      ; ror 1
   128 0000019F 48BE-                       mov     rsi, msg11
   128 000001A1 [5200000000000000] 
   129 000001A9 E837000000                  call    printmsg
   130                                  
   131 000001AE 488B0425[60000000]          mov     rax, [num1]
   132 000001B6 C0C802                      ror     al, 2
   133 000001B9 4889C7                      mov     rdi, rax
   134 000001BC E8(00000000)                call    printb
   135 000001C1 48BE-                       mov     rsi, msg12
   135 000001C3 [5900000000000000] 
   136 000001CB E815000000                  call    printmsg
   137 000001D0 488B0425[68000000]          mov     rax, [num2]
   138 000001D8 C0C802                      ror     al, 2
   139 000001DB 4889C7                      mov     rdi, rax
   140 000001DE E8(00000000)                call    printb
   141                                      
   142 000001E3 C9                          leave
   143 000001E4 C3                          ret
   144                                  ; ------------------------------------------------
   145                                  printmsg:
   146                                  section .data
   147 00000070 257300                      .fmtstr db  "%s",0
   148                                  section .text
   149 000001E5 48BF-                       mov     rdi, .fmtstr
   149 000001E7 [7000000000000000] 
   150 000001EF B800000000                  mov     rax, 0
   151 000001F4 E8(00000000)                call    printf
   152 000001F9 C3                          ret
   153                                  
